target datalayout = "e-m:e-p270:32:32-p271:32:32-p272:64:64-i64:64-i128:128-f80:128-n8:16:32:64-S128"
target triple = "x86_64-pc-linux-gnu"

; Function Attrs: nounwind sspstrong uwtable
define hidden double @FLAC__lpc_compute_expected_bits_per_residual_sample_with_error_scale(double noundef %0, double noundef %1) #0 {
  %3 = alloca double, align 8
  %4 = alloca double, align 8
  %5 = alloca double, align 8
  %6 = alloca double, align 8
  %7 = alloca i32, align 4
  store double %0, ptr %4, align 8, !tbaa !27
  store double %1, ptr %5, align 8, !tbaa !27
  %8 = load double, ptr %4, align 8, !tbaa !27
  %9 = fcmp reassoc nsz arcp ogt double %8, 0.000000e+00
  br i1 %9, label %10, label %23

10:                                               ; preds = %2
  call void @llvm.lifetime.start.p0(i64 8, ptr %6) #5
  %11 = load double, ptr %5, align 8, !tbaa !27
  %12 = load double, ptr %4, align 8, !tbaa !27
  %13 = fmul reassoc nsz arcp double %11, %12
  %14 = call reassoc nsz arcp double @log(double noundef %13) #5, !tbaa !10
  %15 = fmul reassoc nsz arcp double 5.000000e-01, %14
  %16 = fdiv reassoc nsz arcp double %15, 0x3FE62E42FEFA39EF
  store double %16, ptr %6, align 8, !tbaa !27
  %17 = load double, ptr %6, align 8, !tbaa !27
  %18 = fcmp reassoc nsz arcp oge double %17, 0.000000e+00
  br i1 %18, label %19, label %21

19:                                               ; preds = %10
  %20 = load double, ptr %6, align 8, !tbaa !27
  store double %20, ptr %3, align 8
  store i32 1, ptr %7, align 4
  br label %22

21:                                               ; preds = %10
  store double 0.000000e+00, ptr %3, align 8
  store i32 1, ptr %7, align 4
  br label %22

22:                                               ; preds = %21, %19
  call void @llvm.lifetime.end.p0(i64 8, ptr %6) #5
  br label %28

23:                                               ; preds = %2
  %24 = load double, ptr %4, align 8, !tbaa !27
  %25 = fcmp reassoc nsz arcp olt double %24, 0.000000e+00
  br i1 %25, label %26, label %27

26:                                               ; preds = %23
  store double 1.000000e+32, ptr %3, align 8
  br label %28

27:                                               ; preds = %23
  store double 0.000000e+00, ptr %3, align 8
  br label %28

28:                                               ; preds = %27, %26, %22
  %29 = load double, ptr %3, align 8
  ret double %29
}

; Function Attrs: nounwind sspstrong uwtable
define hidden double @FLAC__lpc_compute_expected_bits_per_residual_sample(double noundef %0, i32 noundef %1) #0 {
  %3 = alloca double, align 8
  %4 = alloca i32, align 4
  %5 = alloca double, align 8
  store double %0, ptr %3, align 8, !tbaa !27
  store i32 %1, ptr %4, align 4, !tbaa !10
  call void @llvm.lifetime.start.p0(i64 8, ptr %5) #5
  %6 = load i32, ptr %4, align 4, !tbaa !10
  %7 = uitofp i32 %6 to double
  %8 = fdiv reassoc nsz arcp double 5.000000e-01, %7
  store double %8, ptr %5, align 8, !tbaa !27
  %9 = load double, ptr %3, align 8, !tbaa !27
  %10 = load double, ptr %5, align 8, !tbaa !27
  %11 = call reassoc nsz arcp double @FLAC__lpc_compute_expected_bits_per_residual_sample_with_error_scale(double noundef %9, double noundef %10)
  call void @llvm.lifetime.end.p0(i64 8, ptr %5) #5
  ret double %11
}