; Function Attrs: mustprogress nofree nounwind sspstrong willreturn memory(write) uwtable
define hidden double @FLAC__lpc_compute_expected_bits_per_residual_sample(double noundef %0, i32 noundef %1) local_unnamed_addr #8 {
  %3 = fcmp reassoc nsz arcp ogt double %0, 0.000000e+00
  br i1 %3, label %4, label %10

4:                                                ; preds = %2
  %5 = uitofp i32 %1 to double
  %6 = fmul reassoc nsz arcp double %0, 5.000000e-01
  %7 = fdiv reassoc nsz arcp double %6, %5
  %8 = tail call reassoc nsz arcp double @log(double noundef %7) #13, !tbaa !3
  %9 = fmul reassoc nsz arcp double %8, 0x3FE71547652B82FE
  %.inv.i = fcmp reassoc nsz arcp oge double %9, 0.000000e+00
  %..i = select reassoc nsz arcp i1 %.inv.i, double %9, double 0.000000e+00
  br label %FLAC__lpc_compute_expected_bits_per_residual_sample_with_error_scale.exit

10:                                               ; preds = %2
  %11 = fcmp reassoc nsz arcp olt double %0, 0.000000e+00
  %.10.i = select nsz i1 %11, double 1.000000e+32, double 0.000000e+00
  br label %FLAC__lpc_compute_expected_bits_per_residual_sample_with_error_scale.exit

FLAC__lpc_compute_expected_bits_per_residual_sample_with_error_scale.exit: ; preds = %4, %10
  %.1.i = phi nsz double [ %..i, %4 ], [ %.10.i, %10 ]
  ret double %.1.i
}